; Function Attrs: mustprogress uwtable
define double @ucurr_getRoundingIncrement_77(ptr noundef %0, ptr noundef nonnull %1) local_unnamed_addr #1 {
  %3 = tail call fastcc noundef ptr @_ZL13_findMetaDataPKDsR10UErrorCode(ptr noundef %0, ptr noundef nonnull align 4 dereferenceable(4) %1)
  %4 = load i32, ptr %1, align 4, !tbaa !13
  %5 = icmp sgt i32 %4, 0
  br i1 %5, label %ucurr_getRoundingIncrementForUsage_77.exit, label %6

6:                                                ; preds = %2
  %7 = getelementptr inbounds nuw i8, ptr %3, i64 4
  %.019.i = load i32, ptr %7, align 4, !tbaa !12
  %.020.i = load i32, ptr %3, align 4, !tbaa !12
  %or.cond.i = icmp ugt i32 %.020.i, 9
  br i1 %or.cond.i, label %8, label %9

8:                                                ; preds = %6
  store i32 3, ptr %1, align 4, !tbaa !13
  br label %ucurr_getRoundingIncrementForUsage_77.exit

9:                                                ; preds = %6
  %10 = icmp sgt i32 %.019.i, 1
  br i1 %10, label %11, label %ucurr_getRoundingIncrementForUsage_77.exit

11:                                               ; preds = %9
  %12 = uitofp nneg i32 %.019.i to double
  %13 = zext nneg i32 %.020.i to i64
  %14 = getelementptr inbounds nuw [10 x i32], ptr @_ZL5POW10, i64 0, i64 %13
  %15 = load i32, ptr %14, align 4, !tbaa !12
  %16 = sitofp i32 %15 to double
  %17 = fdiv double %12, %16
  br label %ucurr_getRoundingIncrementForUsage_77.exit

ucurr_getRoundingIncrementForUsage_77.exit:       ; preds = %2, %8, %9, %11
  %.1.i = phi double [ 0.000000e+00, %2 ], [ 0.000000e+00, %9 ], [ %17, %11 ], [ 0.000000e+00, %8 ]
  ret double %.1.i
}